target datalayout = "e-m:e-p270:32:32-p271:32:32-p272:64:64-i64:64-i128:128-f80:128-n8:16:32:64-S128"
target triple = "x86_64-pc-linux-gnu"

%"class.Ipopt::GenAugSystemSolver" = type <{ %"class.Ipopt::AugSystemSolver.base", [7 x i8], %"class.Ipopt::SmartPtr.3", i32, [4 x i8], double, i32, [4 x i8], double, i32, [4 x i8], double, i32, i32, double, i32, i32, double, ptr, ptr, ptr, ptr, i8, [7 x i8] }>
%"class.Ipopt::AugSystemSolver.base" = type { %"class.Ipopt::AlgorithmStrategyObject.base" }
%"class.Ipopt::AlgorithmStrategyObject.base" = type <{ %"class.Ipopt::ReferencedObject.base", [4 x i8], %"class.Ipopt::SmartPtr", %"class.Ipopt::SmartPtr.0", %"class.Ipopt::SmartPtr.1", %"class.Ipopt::SmartPtr.2", i8 }>
%"class.Ipopt::ReferencedObject.base" = type <{ ptr, i32 }>
%"class.Ipopt::SmartPtr" = type { ptr }
%"class.Ipopt::SmartPtr.0" = type { ptr }
%"class.Ipopt::SmartPtr.1" = type { ptr }
%"class.Ipopt::SmartPtr.2" = type { ptr }
%"class.Ipopt::SmartPtr.3" = type { ptr }

; Function Attrs: mustprogress nounwind uwtable
define linkonce_odr noundef ptr @_ZNK5Ipopt8SmartPtrINS_21GenKKTSolverInterfaceEEptEv(ptr noundef nonnull align 8 dereferenceable(8) %0) #5 comdat align 2 {
  %2 = alloca ptr, align 8
  store ptr %0, ptr %2, align 8, !tbaa !46
  %3 = load ptr, ptr %2, align 8
  %4 = getelementptr inbounds nuw %"class.Ipopt::SmartPtr.3", ptr %3, i32 0, i32 0
  %5 = load ptr, ptr %4, align 8, !tbaa !48
  ret ptr %5
}

; Function Attrs: mustprogress uwtable
define noundef i32 @_ZNK5Ipopt18GenAugSystemSolver16NumberOfNegEValsEv(ptr noundef nonnull align 8 dereferenceable(177) %0) unnamed_addr #4 align 2 {
  %2 = alloca ptr, align 8
  store ptr %0, ptr %2, align 8, !tbaa !3
  %3 = load ptr, ptr %2, align 8
  %4 = getelementptr inbounds nuw %"class.Ipopt::GenAugSystemSolver", ptr %3, i32 0, i32 2
  %5 = call noundef ptr @_ZNK5Ipopt8SmartPtrINS_21GenKKTSolverInterfaceEEptEv(ptr noundef nonnull align 8 dereferenceable(8) %4)
  %6 = load ptr, ptr %5, align 8, !tbaa !10
  %7 = getelementptr inbounds ptr, ptr %6, i64 4
  %8 = load ptr, ptr %7, align 8
  %9 = call noundef i32 %8(ptr noundef nonnull align 8 dereferenceable(49) %5)
  ret i32 %9
}