; Function Attrs: mustprogress uwtable
define noundef i32 @_ZNK5Ipopt18GenAugSystemSolver16NumberOfNegEValsEv(ptr noundef nonnull readonly align 8 captures(none) dereferenceable(177) %0) unnamed_addr #6 align 2 {
  %2 = getelementptr inbounds nuw i8, ptr %0, i64 56
  %3 = load ptr, ptr %2, align 8, !tbaa !10
  %4 = load ptr, ptr %3, align 8, !tbaa !8
  %5 = getelementptr inbounds nuw i8, ptr %4, i64 32
  %6 = load ptr, ptr %5, align 8
  %7 = tail call noundef i32 %6(ptr noundef nonnull align 8 dereferenceable(49) %3)
  ret i32 %7
}